target datalayout = "e-m:e-p270:32:32-p271:32:32-p272:64:64-i64:64-i128:128-f80:128-n8:16:32:64-S128"
target triple = "x86_64-pc-linux-gnu"

%"struct.cv::Ptr" = type { %"class.std::shared_ptr" }
%"class.std::shared_ptr" = type { %"class.std::__shared_ptr" }
%"class.std::__shared_ptr" = type { ptr, %"class.std::__shared_count" }
%"class.std::__shared_count" = type { ptr }
%"struct.cv::Ptr.0" = type { %"class.std::shared_ptr.1" }
%"class.std::shared_ptr.1" = type { %"class.std::__shared_ptr.2" }
%"class.std::__shared_ptr.2" = type { ptr, %"class.std::__shared_count" }
%"class.cv::_InputArray" = type { i32, ptr, %"class.cv::Size_" }
%"class.cv::Size_" = type { i32, i32 }
%"class.cv::Mat" = type { i32, i32, i32, i32, ptr, ptr, ptr, ptr, ptr, ptr, %"struct.cv::MatSize", %"struct.cv::MatStep" }
%"struct.cv::MatSize" = type { ptr }
%"struct.cv::MatStep" = type { ptr, [2 x i64] }

; Function Attrs: mustprogress nounwind uwtable
define linkonce_odr hidden noundef ptr @_ZNKSt12__shared_ptrIN2cv2ml6SVMSGDELN9__gnu_cxx12_Lock_policyE2EE3getEv(ptr noundef nonnull align 8 dereferenceable(16) %0) #7 comdat align 2 {
  %2 = alloca ptr, align 8
  store ptr %0, ptr %2, align 8, !tbaa !21
  %3 = load ptr, ptr %2, align 8
  %4 = getelementptr inbounds nuw %"class.std::__shared_ptr", ptr %3, i32 0, i32 0
  %5 = load ptr, ptr %4, align 8, !tbaa !145
  ret ptr %5
}

; Function Attrs: inlinehint mustprogress nounwind uwtable
define linkonce_odr hidden void @_ZN2cv11_InputArray4initEiPKv(ptr noundef nonnull align 8 dereferenceable(24) %0, i32 noundef %1, ptr noundef %2) #8 comdat align 2 {
  %4 = alloca ptr, align 8
  %5 = alloca i32, align 4
  %6 = alloca ptr, align 8
  store ptr %0, ptr %4, align 8, !tbaa !15
  store i32 %1, ptr %5, align 4, !tbaa !25
  store ptr %2, ptr %6, align 8, !tbaa !79
  %7 = load ptr, ptr %4, align 8
  %8 = load i32, ptr %5, align 4, !tbaa !25
  %9 = getelementptr inbounds nuw %"class.cv::_InputArray", ptr %7, i32 0, i32 0
  store i32 %8, ptr %9, align 8, !tbaa !85
  %10 = load ptr, ptr %6, align 8, !tbaa !79
  %11 = getelementptr inbounds nuw %"class.cv::_InputArray", ptr %7, i32 0, i32 1
  store ptr %10, ptr %11, align 8, !tbaa !87
  ret void
}

; Function Attrs: inlinehint mustprogress nounwind uwtable
define linkonce_odr hidden void @_ZN2cv5Size_IiEC2Ev(ptr noundef nonnull align 4 dereferenceable(8) %0) unnamed_addr #8 comdat align 2 {
  %2 = alloca ptr, align 8
  store ptr %0, ptr %2, align 8, !tbaa !80
  %3 = load ptr, ptr %2, align 8
  %4 = getelementptr inbounds nuw %"class.cv::Size_", ptr %3, i32 0, i32 0
  store i32 0, ptr %4, align 4, !tbaa !82
  %5 = getelementptr inbounds nuw %"class.cv::Size_", ptr %3, i32 0, i32 1
  store i32 0, ptr %5, align 4, !tbaa !84
  ret void
}

; Function Attrs: mustprogress nounwind uwtable
define linkonce_odr hidden noundef ptr @_ZNK2cv3PtrINS_2ml6SVMSGDEEptEv(ptr noundef nonnull align 8 dereferenceable(16) %0) #7 comdat align 2 {
  %2 = alloca ptr, align 8
  store ptr %0, ptr %2, align 8, !tbaa !17
  %3 = load ptr, ptr %2, align 8
  %4 = call noundef ptr @_ZNKSt12__shared_ptrIN2cv2ml6SVMSGDELN9__gnu_cxx12_Lock_policyE2EE3getEv(ptr noundef nonnull align 8 dereferenceable(16) %3) #3
  ret ptr %4
}

; Function Attrs: inlinehint mustprogress nounwind uwtable
define linkonce_odr hidden void @_ZN2cv11_InputArrayD2Ev(ptr noundef nonnull align 8 dereferenceable(24) %0) unnamed_addr #8 comdat align 2 {
  %2 = alloca ptr, align 8
  store ptr %0, ptr %2, align 8, !tbaa !15
  ret void
}

; Function Attrs: inlinehint mustprogress uwtable
define linkonce_odr hidden void @_ZN2cv11_InputArrayC2ERKNS_3MatE(ptr noundef nonnull align 8 dereferenceable(24) %0, ptr noundef nonnull align 8 dereferenceable(96) %1) unnamed_addr #6 comdat align 2 {
  %3 = alloca ptr, align 8
  %4 = alloca ptr, align 8
  store ptr %0, ptr %3, align 8, !tbaa !15
  store ptr %1, ptr %4, align 8, !tbaa !4
  %5 = load ptr, ptr %3, align 8
  %6 = getelementptr inbounds nuw %"class.cv::_InputArray", ptr %5, i32 0, i32 2
  call void @_ZN2cv5Size_IiEC2Ev(ptr noundef nonnull align 4 dereferenceable(8) %6)
  %7 = load ptr, ptr %4, align 8, !tbaa !4
  call void @_ZN2cv11_InputArray4initEiPKv(ptr noundef nonnull align 8 dereferenceable(24) %5, i32 noundef 16842752, ptr noundef %7)
  ret void
}

; Function Attrs: mustprogress uwtable
define hidden noundef zeroext i1 @_Z7doTrainN2cv3MatES0_RS0_Rf(ptr noundef %0, ptr noundef %1, ptr noundef nonnull align 8 dereferenceable(96) %2, ptr noundef nonnull align 4 dereferenceable(4) %3) #4 personality ptr @__gxx_personality_v0 {
  %5 = alloca i1, align 1
  %6 = alloca ptr, align 8
  %7 = alloca ptr, align 8
  %8 = alloca ptr, align 8
  %9 = alloca ptr, align 8
  %10 = alloca %"struct.cv::Ptr", align 8
  %11 = alloca %"struct.cv::Ptr.0", align 8
  %12 = alloca %"class.cv::_InputArray", align 8
  %13 = alloca ptr, align 8
  %14 = alloca i32, align 4
  %15 = alloca %"class.cv::_InputArray", align 8
  %16 = alloca %"class.cv::Mat", align 8
  %17 = alloca i32, align 4
  store ptr %0, ptr %6, align 8, !tbaa !4
  store ptr %1, ptr %7, align 8, !tbaa !4
  store ptr %2, ptr %8, align 8, !tbaa !4
  store ptr %3, ptr %9, align 8, !tbaa !9
  call void @llvm.lifetime.start.p0(i64 16, ptr %10) #3
  call void @_ZN2cv2ml6SVMSGD6createEv(ptr dead_on_unwind writable sret(%"struct.cv::Ptr") align 8 %10)
  call void @llvm.lifetime.start.p0(i64 16, ptr %11) #3
  call void @llvm.lifetime.start.p0(i64 24, ptr %12) #3
  invoke void @_ZN2cv11_InputArrayC2ERKNS_3MatE(ptr noundef nonnull align 8 dereferenceable(24) %12, ptr noundef nonnull align 8 dereferenceable(96) %0)
          to label %18 unwind label %57

18:                                               ; preds = %4
  call void @llvm.lifetime.start.p0(i64 24, ptr %15) #3
  invoke void @_ZN2cv11_InputArrayC2ERKNS_3MatE(ptr noundef nonnull align 8 dereferenceable(24) %15, ptr noundef nonnull align 8 dereferenceable(96) %1)
          to label %19 unwind label %61

19:                                               ; preds = %18
  %20 = invoke noundef nonnull align 8 dereferenceable(24) ptr @_ZN2cv7noArrayEv()
          to label %21 unwind label %65

21:                                               ; preds = %19
  %22 = invoke noundef nonnull align 8 dereferenceable(24) ptr @_ZN2cv7noArrayEv()
          to label %23 unwind label %65

23:                                               ; preds = %21
  %24 = invoke noundef nonnull align 8 dereferenceable(24) ptr @_ZN2cv7noArrayEv()
          to label %25 unwind label %65

25:                                               ; preds = %23
  %26 = invoke noundef nonnull align 8 dereferenceable(24) ptr @_ZN2cv7noArrayEv()
          to label %27 unwind label %65

27:                                               ; preds = %25
  invoke void @_ZN2cv2ml9TrainData6createERKNS_11_InputArrayEiS4_S4_S4_S4_S4_(ptr dead_on_unwind writable sret(%"struct.cv::Ptr.0") align 8 %11, ptr noundef nonnull align 8 dereferenceable(24) %12, i32 noundef 0, ptr noundef nonnull align 8 dereferenceable(24) %15, ptr noundef nonnull align 8 dereferenceable(24) %20, ptr noundef nonnull align 8 dereferenceable(24) %22, ptr noundef nonnull align 8 dereferenceable(24) %24, ptr noundef nonnull align 8 dereferenceable(24) %26)
          to label %28 unwind label %65

28:                                               ; preds = %27
  call void @_ZN2cv11_InputArrayD2Ev(ptr noundef nonnull align 8 dereferenceable(24) %15) #3
  call void @llvm.lifetime.end.p0(i64 24, ptr %15) #3
  call void @_ZN2cv11_InputArrayD2Ev(ptr noundef nonnull align 8 dereferenceable(24) %12) #3
  call void @llvm.lifetime.end.p0(i64 24, ptr %12) #3
  %29 = call noundef ptr @_ZNK2cv3PtrINS_2ml6SVMSGDEEptEv(ptr noundef nonnull align 8 dereferenceable(16) %10) #3
  %30 = load ptr, ptr %29, align 8, !tbaa !11
  %31 = getelementptr inbounds ptr, ptr %30, i64 11
  %32 = load ptr, ptr %31, align 8
  %33 = invoke noundef zeroext i1 %32(ptr noundef nonnull align 8 dereferenceable(8) %29, ptr noundef nonnull align 8 dereferenceable(16) %11, i32 noundef 0)
          to label %34 unwind label %71

34:                                               ; preds = %28
  %35 = call noundef ptr @_ZNK2cv3PtrINS_2ml6SVMSGDEEptEv(ptr noundef nonnull align 8 dereferenceable(16) %10) #3
  %36 = load ptr, ptr %35, align 8, !tbaa !11
  %37 = getelementptr inbounds ptr, ptr %36, i64 9
  %38 = load ptr, ptr %37, align 8
  %39 = invoke noundef zeroext i1 %38(ptr noundef nonnull align 8 dereferenceable(8) %35)
          to label %40 unwind label %71

40:                                               ; preds = %34
  br i1 %39, label %41, label %84

41:                                               ; preds = %40
  call void @llvm.lifetime.start.p0(i64 96, ptr %16) #3
  %42 = call noundef ptr @_ZNK2cv3PtrINS_2ml6SVMSGDEEptEv(ptr noundef nonnull align 8 dereferenceable(16) %10) #3
  %43 = load ptr, ptr %42, align 8, !tbaa !11
  %44 = getelementptr inbounds ptr, ptr %43, i64 15
  %45 = load ptr, ptr %44, align 8
  invoke void %45(ptr dead_on_unwind writable sret(%"class.cv::Mat") align 8 %16, ptr noundef nonnull align 8 dereferenceable(8) %42)
          to label %46 unwind label %75

46:                                               ; preds = %41
  %47 = load ptr, ptr %8, align 8, !tbaa !4
  %48 = invoke noundef nonnull align 8 dereferenceable(96) ptr @_ZN2cv3MataSEOS0_(ptr noundef nonnull align 8 dereferenceable(96) %47, ptr noundef nonnull align 8 dereferenceable(96) %16)
          to label %49 unwind label %79

49:                                               ; preds = %46
  call void @_ZN2cv3MatD1Ev(ptr noundef nonnull align 8 dereferenceable(96) %16) #3
  call void @llvm.lifetime.end.p0(i64 96, ptr %16) #3
  %50 = call noundef ptr @_ZNK2cv3PtrINS_2ml6SVMSGDEEptEv(ptr noundef nonnull align 8 dereferenceable(16) %10) #3
  %51 = load ptr, ptr %50, align 8, !tbaa !11
  %52 = getelementptr inbounds ptr, ptr %51, i64 16
  %53 = load ptr, ptr %52, align 8
  %54 = invoke noundef float %53(ptr noundef nonnull align 8 dereferenceable(8) %50)
          to label %55 unwind label %71

55:                                               ; preds = %49
  %56 = load ptr, ptr %9, align 8, !tbaa !9
  store float %54, ptr %56, align 4, !tbaa !13
  store i1 true, ptr %5, align 1
  store i32 1, ptr %17, align 4
  br label %85

57:                                               ; preds = %4
  %58 = landingpad { ptr, i32 }
          cleanup
  %59 = extractvalue { ptr, i32 } %58, 0
  store ptr %59, ptr %13, align 8
  %60 = extractvalue { ptr, i32 } %58, 1
  store i32 %60, ptr %14, align 4
  br label %70

61:                                               ; preds = %18
  %62 = landingpad { ptr, i32 }
          cleanup
  %63 = extractvalue { ptr, i32 } %62, 0
  store ptr %63, ptr %13, align 8
  %64 = extractvalue { ptr, i32 } %62, 1
  store i32 %64, ptr %14, align 4
  br label %69

65:                                               ; preds = %27, %25, %23, %21, %19
  %66 = landingpad { ptr, i32 }
          cleanup
  %67 = extractvalue { ptr, i32 } %66, 0
  store ptr %67, ptr %13, align 8
  %68 = extractvalue { ptr, i32 } %66, 1
  store i32 %68, ptr %14, align 4
  call void @_ZN2cv11_InputArrayD2Ev(ptr noundef nonnull align 8 dereferenceable(24) %15) #3
  br label %69

69:                                               ; preds = %65, %61
  call void @llvm.lifetime.end.p0(i64 24, ptr %15) #3
  call void @_ZN2cv11_InputArrayD2Ev(ptr noundef nonnull align 8 dereferenceable(24) %12) #3
  br label %70

70:                                               ; preds = %69, %57
  call void @llvm.lifetime.end.p0(i64 24, ptr %12) #3
  br label %88

71:                                               ; preds = %49, %34, %28
  %72 = landingpad { ptr, i32 }
          cleanup
  %73 = extractvalue { ptr, i32 } %72, 0
  store ptr %73, ptr %13, align 8
  %74 = extractvalue { ptr, i32 } %72, 1
  store i32 %74, ptr %14, align 4
  br label %87

75:                                               ; preds = %41
  %76 = landingpad { ptr, i32 }
          cleanup
  %77 = extractvalue { ptr, i32 } %76, 0
  store ptr %77, ptr %13, align 8
  %78 = extractvalue { ptr, i32 } %76, 1
  store i32 %78, ptr %14, align 4
  br label %83

79:                                               ; preds = %46
  %80 = landingpad { ptr, i32 }
          cleanup
  %81 = extractvalue { ptr, i32 } %80, 0
  store ptr %81, ptr %13, align 8
  %82 = extractvalue { ptr, i32 } %80, 1
  store i32 %82, ptr %14, align 4
  call void @_ZN2cv3MatD1Ev(ptr noundef nonnull align 8 dereferenceable(96) %16) #3
  br label %83

83:                                               ; preds = %79, %75
  call void @llvm.lifetime.end.p0(i64 96, ptr %16) #3
  br label %87

84:                                               ; preds = %40
  store i1 false, ptr %5, align 1
  store i32 1, ptr %17, align 4
  br label %85

85:                                               ; preds = %84, %55
  call void @_ZNSt12__shared_ptrIN2cv2ml9TrainDataELN9__gnu_cxx12_Lock_policyE2EED2Ev(ptr noundef nonnull align 8 dereferenceable(16) %11) #3
  call void @llvm.lifetime.end.p0(i64 16, ptr %11) #3
  call void @_ZNSt12__shared_ptrIN2cv2ml6SVMSGDELN9__gnu_cxx12_Lock_policyE2EED2Ev(ptr noundef nonnull align 8 dereferenceable(16) %10) #3
  call void @llvm.lifetime.end.p0(i64 16, ptr %10) #3
  %86 = load i1, ptr %5, align 1
  ret i1 %86

87:                                               ; preds = %83, %71
  call void @_ZNSt12__shared_ptrIN2cv2ml9TrainDataELN9__gnu_cxx12_Lock_policyE2EED2Ev(ptr noundef nonnull align 8 dereferenceable(16) %11) #3
  br label %88

88:                                               ; preds = %87, %70
  call void @llvm.lifetime.end.p0(i64 16, ptr %11) #3
  call void @_ZNSt12__shared_ptrIN2cv2ml6SVMSGDELN9__gnu_cxx12_Lock_policyE2EED2Ev(ptr noundef nonnull align 8 dereferenceable(16) %10) #3
  call void @llvm.lifetime.end.p0(i64 16, ptr %10) #3
  br label %89

89:                                               ; preds = %88
  %90 = load ptr, ptr %13, align 8
  %91 = load i32, ptr %14, align 4
  %92 = insertvalue { ptr, i32 } poison, ptr %90, 0
  %93 = insertvalue { ptr, i32 } %92, i32 %91, 1
  resume { ptr, i32 } %93
}