; Function Attrs: mustprogress uwtable
define hidden noundef zeroext i1 @_Z7doTrainN2cv3MatES0_RS0_Rf(ptr noundef %0, ptr noundef %1, ptr noundef nonnull align 8 dereferenceable(96) %2, ptr noundef nonnull writeonly align 4 captures(none) dereferenceable(4) %3) local_unnamed_addr #3 personality ptr @__gxx_personality_v0 {
  %5 = alloca %"struct.cv::Ptr", align 8
  %6 = alloca %"struct.cv::Ptr.0", align 8
  %7 = alloca %"class.cv::_InputArray", align 8
  %8 = alloca %"class.cv::_InputArray", align 8
  %9 = alloca %"class.cv::Mat", align 8
  call void @llvm.lifetime.start.p0(i64 16, ptr nonnull %5) #19
  call void @_ZN2cv2ml6SVMSGD6createEv(ptr dead_on_unwind nonnull writable sret(%"struct.cv::Ptr") align 8 %5)
  call void @llvm.lifetime.start.p0(i64 16, ptr nonnull %6) #19
  call void @llvm.lifetime.start.p0(i64 24, ptr nonnull %7) #19
  %10 = getelementptr inbounds nuw i8, ptr %7, i64 16
  store i32 0, ptr %10, align 8, !tbaa !4
  %11 = getelementptr inbounds nuw i8, ptr %7, i64 20
  store i32 0, ptr %11, align 4, !tbaa !9
  store i32 16842752, ptr %7, align 8, !tbaa !10
  %12 = getelementptr inbounds nuw i8, ptr %7, i64 8
  store ptr %0, ptr %12, align 8, !tbaa !13
  call void @llvm.lifetime.start.p0(i64 24, ptr nonnull %8) #19
  %13 = getelementptr inbounds nuw i8, ptr %8, i64 16
  store i32 0, ptr %13, align 8, !tbaa !4
  %14 = getelementptr inbounds nuw i8, ptr %8, i64 20
  store i32 0, ptr %14, align 4, !tbaa !9
  store i32 16842752, ptr %8, align 8, !tbaa !10
  %15 = getelementptr inbounds nuw i8, ptr %8, i64 8
  store ptr %1, ptr %15, align 8, !tbaa !13
  %16 = invoke noundef nonnull align 8 dereferenceable(24) ptr @_ZN2cv7noArrayEv()
          to label %17 unwind label %51

17:                                               ; preds = %4
  %18 = invoke noundef nonnull align 8 dereferenceable(24) ptr @_ZN2cv7noArrayEv()
          to label %19 unwind label %51

19:                                               ; preds = %17
  %20 = invoke noundef nonnull align 8 dereferenceable(24) ptr @_ZN2cv7noArrayEv()
          to label %21 unwind label %51

21:                                               ; preds = %19
  %22 = invoke noundef nonnull align 8 dereferenceable(24) ptr @_ZN2cv7noArrayEv()
          to label %23 unwind label %51

23:                                               ; preds = %21
  invoke void @_ZN2cv2ml9TrainData6createERKNS_11_InputArrayEiS4_S4_S4_S4_S4_(ptr dead_on_unwind nonnull writable sret(%"struct.cv::Ptr.0") align 8 %6, ptr noundef nonnull align 8 dereferenceable(24) %7, i32 noundef 0, ptr noundef nonnull align 8 dereferenceable(24) %8, ptr noundef nonnull align 8 dereferenceable(24) %16, ptr noundef nonnull align 8 dereferenceable(24) %18, ptr noundef nonnull align 8 dereferenceable(24) %20, ptr noundef nonnull align 8 dereferenceable(24) %22)
          to label %24 unwind label %51

24:                                               ; preds = %23
  call void @llvm.lifetime.end.p0(i64 24, ptr nonnull %8) #19
  call void @llvm.lifetime.end.p0(i64 24, ptr nonnull %7) #19
  %25 = load ptr, ptr %5, align 8, !tbaa !14
  %26 = load ptr, ptr %25, align 8, !tbaa !19
  %27 = getelementptr inbounds nuw i8, ptr %26, i64 88
  %28 = load ptr, ptr %27, align 8
  %29 = invoke noundef zeroext i1 %28(ptr noundef nonnull align 8 dereferenceable(8) %25, ptr noundef nonnull align 8 dereferenceable(16) %6, i32 noundef 0)
          to label %30 unwind label %53

30:                                               ; preds = %24
  %31 = load ptr, ptr %5, align 8, !tbaa !14
  %32 = load ptr, ptr %31, align 8, !tbaa !19
  %33 = getelementptr inbounds nuw i8, ptr %32, i64 72
  %34 = load ptr, ptr %33, align 8
  %35 = invoke noundef zeroext i1 %34(ptr noundef nonnull align 8 dereferenceable(8) %31)
          to label %36 unwind label %53

36:                                               ; preds = %30
  br i1 %35, label %37, label %60

37:                                               ; preds = %36
  call void @llvm.lifetime.start.p0(i64 96, ptr nonnull %9) #19
  %38 = load ptr, ptr %5, align 8, !tbaa !14
  %39 = load ptr, ptr %38, align 8, !tbaa !19
  %40 = getelementptr inbounds nuw i8, ptr %39, i64 120
  %41 = load ptr, ptr %40, align 8
  invoke void %41(ptr dead_on_unwind nonnull writable sret(%"class.cv::Mat") align 8 %9, ptr noundef nonnull align 8 dereferenceable(8) %38)
          to label %42 unwind label %55

42:                                               ; preds = %37
  %43 = invoke noundef nonnull align 8 dereferenceable(96) ptr @_ZN2cv3MataSEOS0_(ptr noundef nonnull align 8 dereferenceable(96) %2, ptr noundef nonnull align 8 dereferenceable(96) %9)
          to label %44 unwind label %57

44:                                               ; preds = %42
  call void @_ZN2cv3MatD1Ev(ptr noundef nonnull align 8 dereferenceable(96) %9) #19
  call void @llvm.lifetime.end.p0(i64 96, ptr nonnull %9) #19
  %45 = load ptr, ptr %5, align 8, !tbaa !14
  %46 = load ptr, ptr %45, align 8, !tbaa !19
  %47 = getelementptr inbounds nuw i8, ptr %46, i64 128
  %48 = load ptr, ptr %47, align 8
  %49 = invoke noundef float %48(ptr noundef nonnull align 8 dereferenceable(8) %45)
          to label %50 unwind label %53

50:                                               ; preds = %44
  store float %49, ptr %3, align 4, !tbaa !21
  br label %60

51:                                               ; preds = %23, %21, %19, %17, %4
  %52 = landingpad { ptr, i32 }
          cleanup
  call void @llvm.lifetime.end.p0(i64 24, ptr nonnull %8) #19
  call void @llvm.lifetime.end.p0(i64 24, ptr nonnull %7) #19
  br label %108

53:                                               ; preds = %44, %30, %24
  %54 = landingpad { ptr, i32 }
          cleanup
  br label %107

55:                                               ; preds = %37
  %56 = landingpad { ptr, i32 }
          cleanup
  br label %59

57:                                               ; preds = %42
  %58 = landingpad { ptr, i32 }
          cleanup
  call void @_ZN2cv3MatD1Ev(ptr noundef nonnull align 8 dereferenceable(96) %9) #19
  br label %59

59:                                               ; preds = %57, %55
  %.pn12 = phi { ptr, i32 } [ %58, %57 ], [ %56, %55 ]
  call void @llvm.lifetime.end.p0(i64 96, ptr nonnull %9) #19
  br label %107

60:                                               ; preds = %36, %50
  %61 = getelementptr inbounds nuw i8, ptr %6, i64 8
  %62 = load ptr, ptr %61, align 8, !tbaa !23
  %.not.i.i = icmp eq ptr %62, null
  br i1 %.not.i.i, label %_ZNSt12__shared_ptrIN2cv2ml9TrainDataELN9__gnu_cxx12_Lock_policyE2EED2Ev.exit, label %63

63:                                               ; preds = %60
  %64 = getelementptr inbounds nuw i8, ptr %62, i64 8
  %65 = load atomic i64, ptr %64 acquire, align 8
  %66 = icmp eq i64 %65, 4294967297
  %67 = trunc i64 %65 to i32
  br i1 %66, label %68, label %76

68:                                               ; preds = %63
  store i32 0, ptr %64, align 8, !tbaa !24
  %69 = getelementptr inbounds nuw i8, ptr %62, i64 12
  store i32 0, ptr %69, align 4, !tbaa !26
  %70 = load ptr, ptr %62, align 8, !tbaa !19
  %71 = getelementptr inbounds nuw i8, ptr %70, i64 16
  %72 = load ptr, ptr %71, align 8
  call void %72(ptr noundef nonnull align 8 dereferenceable(16) %62) #19
  %73 = load ptr, ptr %62, align 8, !tbaa !19
  %74 = getelementptr inbounds nuw i8, ptr %73, i64 24
  %75 = load ptr, ptr %74, align 8
  call void %75(ptr noundef nonnull align 8 dereferenceable(16) %62) #19
  br label %_ZNSt12__shared_ptrIN2cv2ml9TrainDataELN9__gnu_cxx12_Lock_policyE2EED2Ev.exit

76:                                               ; preds = %63
  %77 = load i8, ptr @__libc_single_threaded, align 1, !tbaa !27
  %.not.i.i.i = icmp eq i8 %77, 0
  br i1 %.not.i.i.i, label %80, label %78

78:                                               ; preds = %76
  %79 = add nsw i32 %67, -1
  store i32 %79, ptr %64, align 4, !tbaa !28
  br label %_ZN9__gnu_cxx27__exchange_and_add_dispatchEPii.exit.i.i.i

80:                                               ; preds = %76
  %81 = atomicrmw volatile add ptr %64, i32 -1 acq_rel, align 4
  br label %_ZN9__gnu_cxx27__exchange_and_add_dispatchEPii.exit.i.i.i

_ZN9__gnu_cxx27__exchange_and_add_dispatchEPii.exit.i.i.i: ; preds = %80, %78
  %.0.i.i.i.i = phi i32 [ %67, %78 ], [ %81, %80 ]
  %82 = icmp eq i32 %.0.i.i.i.i, 1
  br i1 %82, label %83, label %_ZNSt12__shared_ptrIN2cv2ml9TrainDataELN9__gnu_cxx12_Lock_policyE2EED2Ev.exit, !prof !29

83:                                               ; preds = %_ZN9__gnu_cxx27__exchange_and_add_dispatchEPii.exit.i.i.i
  call void @_ZNSt16_Sp_counted_baseILN9__gnu_cxx12_Lock_policyE2EE24_M_release_last_use_coldEv(ptr noundef nonnull align 8 dereferenceable(16) %62) #19
  br label %_ZNSt12__shared_ptrIN2cv2ml9TrainDataELN9__gnu_cxx12_Lock_policyE2EED2Ev.exit

_ZNSt12__shared_ptrIN2cv2ml9TrainDataELN9__gnu_cxx12_Lock_policyE2EED2Ev.exit: ; preds = %60, %68, %_ZN9__gnu_cxx27__exchange_and_add_dispatchEPii.exit.i.i.i, %83
  call void @llvm.lifetime.end.p0(i64 16, ptr nonnull %6) #19
  %84 = getelementptr inbounds nuw i8, ptr %5, i64 8
  %85 = load ptr, ptr %84, align 8, !tbaa !23
  %.not.i.i17 = icmp eq ptr %85, null
  br i1 %.not.i.i17, label %_ZNSt12__shared_ptrIN2cv2ml6SVMSGDELN9__gnu_cxx12_Lock_policyE2EED2Ev.exit, label %86

86:                                               ; preds = %_ZNSt12__shared_ptrIN2cv2ml9TrainDataELN9__gnu_cxx12_Lock_policyE2EED2Ev.exit
  %87 = getelementptr inbounds nuw i8, ptr %85, i64 8
  %88 = load atomic i64, ptr %87 acquire, align 8
  %89 = icmp eq i64 %88, 4294967297
  %90 = trunc i64 %88 to i32
  br i1 %89, label %91, label %99

91:                                               ; preds = %86
  store i32 0, ptr %87, align 8, !tbaa !24
  %92 = getelementptr inbounds nuw i8, ptr %85, i64 12
  store i32 0, ptr %92, align 4, !tbaa !26
  %93 = load ptr, ptr %85, align 8, !tbaa !19
  %94 = getelementptr inbounds nuw i8, ptr %93, i64 16
  %95 = load ptr, ptr %94, align 8
  call void %95(ptr noundef nonnull align 8 dereferenceable(16) %85) #19
  %96 = load ptr, ptr %85, align 8, !tbaa !19
  %97 = getelementptr inbounds nuw i8, ptr %96, i64 24
  %98 = load ptr, ptr %97, align 8
  call void %98(ptr noundef nonnull align 8 dereferenceable(16) %85) #19
  br label %_ZNSt12__shared_ptrIN2cv2ml6SVMSGDELN9__gnu_cxx12_Lock_policyE2EED2Ev.exit

99:                                               ; preds = %86
  %100 = load i8, ptr @__libc_single_threaded, align 1, !tbaa !27
  %.not.i.i.i18 = icmp eq i8 %100, 0
  br i1 %.not.i.i.i18, label %103, label %101

101:                                              ; preds = %99
  %102 = add nsw i32 %90, -1
  store i32 %102, ptr %87, align 4, !tbaa !28
  br label %_ZN9__gnu_cxx27__exchange_and_add_dispatchEPii.exit.i.i.i19

103:                                              ; preds = %99
  %104 = atomicrmw volatile add ptr %87, i32 -1 acq_rel, align 4
  br label %_ZN9__gnu_cxx27__exchange_and_add_dispatchEPii.exit.i.i.i19

_ZN9__gnu_cxx27__exchange_and_add_dispatchEPii.exit.i.i.i19: ; preds = %103, %101
  %.0.i.i.i.i20 = phi i32 [ %90, %101 ], [ %104, %103 ]
  %105 = icmp eq i32 %.0.i.i.i.i20, 1
  br i1 %105, label %106, label %_ZNSt12__shared_ptrIN2cv2ml6SVMSGDELN9__gnu_cxx12_Lock_policyE2EED2Ev.exit, !prof !29

106:                                              ; preds = %_ZN9__gnu_cxx27__exchange_and_add_dispatchEPii.exit.i.i.i19
  call void @_ZNSt16_Sp_counted_baseILN9__gnu_cxx12_Lock_policyE2EE24_M_release_last_use_coldEv(ptr noundef nonnull align 8 dereferenceable(16) %85) #19
  br label %_ZNSt12__shared_ptrIN2cv2ml6SVMSGDELN9__gnu_cxx12_Lock_policyE2EED2Ev.exit

_ZNSt12__shared_ptrIN2cv2ml6SVMSGDELN9__gnu_cxx12_Lock_policyE2EED2Ev.exit: ; preds = %_ZNSt12__shared_ptrIN2cv2ml9TrainDataELN9__gnu_cxx12_Lock_policyE2EED2Ev.exit, %91, %_ZN9__gnu_cxx27__exchange_and_add_dispatchEPii.exit.i.i.i19, %106
  call void @llvm.lifetime.end.p0(i64 16, ptr nonnull %5) #19
  ret i1 %35

107:                                              ; preds = %59, %53
  %.pn14 = phi { ptr, i32 } [ %54, %53 ], [ %.pn12, %59 ]
  call void @_ZNSt12__shared_ptrIN2cv2ml9TrainDataELN9__gnu_cxx12_Lock_policyE2EED2Ev(ptr noundef nonnull align 8 dereferenceable(16) %6) #19
  br label %108

108:                                              ; preds = %107, %51
  %.pn14.pn = phi { ptr, i32 } [ %.pn14, %107 ], [ %52, %51 ]
  call void @llvm.lifetime.end.p0(i64 16, ptr nonnull %6) #19
  call void @_ZNSt12__shared_ptrIN2cv2ml6SVMSGDELN9__gnu_cxx12_Lock_policyE2EED2Ev(ptr noundef nonnull align 8 dereferenceable(16) %5) #19
  call void @llvm.lifetime.end.p0(i64 16, ptr nonnull %5) #19
  resume { ptr, i32 } %.pn14.pn
}